; Function Attrs: mustprogress uwtable
define noundef double @_ZNK32pxrInternal_v0_24__pxrReserved__8GfBBox3d9GetVolumeEv(ptr noundef nonnull align 8 dereferenceable(306) %0) local_unnamed_addr #0 align 2 {
  %2 = load double, ptr %0, align 8
  %3 = getelementptr inbounds nuw i8, ptr %0, i64 24
  %4 = load double, ptr %3, align 8
  %5 = fcmp ogt double %2, %4
  br i1 %5, label %_ZNK32pxrInternal_v0_24__pxrReserved__9GfRange3d7IsEmptyEv.exit.thread, label %6

6:                                                ; preds = %1
  %7 = getelementptr inbounds nuw i8, ptr %0, i64 8
  %8 = load double, ptr %7, align 8
  %9 = getelementptr inbounds nuw i8, ptr %0, i64 32
  %10 = load double, ptr %9, align 8
  %11 = fcmp ogt double %8, %10
  br i1 %11, label %_ZNK32pxrInternal_v0_24__pxrReserved__9GfRange3d7IsEmptyEv.exit.thread, label %_ZNK32pxrInternal_v0_24__pxrReserved__9GfRange3d7IsEmptyEv.exit

_ZNK32pxrInternal_v0_24__pxrReserved__9GfRange3d7IsEmptyEv.exit: ; preds = %6
  %12 = getelementptr inbounds nuw i8, ptr %0, i64 16
  %13 = load double, ptr %12, align 8
  %14 = getelementptr inbounds nuw i8, ptr %0, i64 40
  %15 = load double, ptr %14, align 8
  %16 = fcmp ogt double %13, %15
  br i1 %16, label %_ZNK32pxrInternal_v0_24__pxrReserved__9GfRange3d7IsEmptyEv.exit.thread, label %17

17:                                               ; preds = %_ZNK32pxrInternal_v0_24__pxrReserved__9GfRange3d7IsEmptyEv.exit
  %18 = fsub double %4, %2
  %19 = fsub double %10, %8
  %20 = fsub double %15, %13
  %21 = getelementptr inbounds nuw i8, ptr %0, i64 48
  %22 = tail call noundef double @_ZNK32pxrInternal_v0_24__pxrReserved__10GfMatrix4d16_GetDeterminant3Emmmmmm(ptr noundef nonnull align 8 dereferenceable(128) %21, i64 noundef 0, i64 noundef 1, i64 noundef 2, i64 noundef 0, i64 noundef 1, i64 noundef 2)
  %23 = fmul double %18, %22
  %24 = fmul double %19, %23
  %25 = fmul double %20, %24
  %26 = tail call double @llvm.fabs.f64(double %25)
  br label %_ZNK32pxrInternal_v0_24__pxrReserved__9GfRange3d7IsEmptyEv.exit.thread

_ZNK32pxrInternal_v0_24__pxrReserved__9GfRange3d7IsEmptyEv.exit.thread: ; preds = %1, %6, %_ZNK32pxrInternal_v0_24__pxrReserved__9GfRange3d7IsEmptyEv.exit, %17
  %.0 = phi double [ %26, %17 ], [ 0.000000e+00, %_ZNK32pxrInternal_v0_24__pxrReserved__9GfRange3d7IsEmptyEv.exit ], [ 0.000000e+00, %6 ], [ 0.000000e+00, %1 ]
  ret double %.0
}